target datalayout = "e-m:e-p270:32:32-p271:32:32-p272:64:64-i64:64-i128:128-f80:128-n8:16:32:64-S128"
target triple = "x86_64-pc-linux-gnu"

%class.btMultiBodyDynamicsWorld = type { %class.btDiscreteDynamicsWorld.base, [4 x i8], %class.btAlignedObjectArray.8, %class.btAlignedObjectArray.10, %class.btAlignedObjectArray.10, ptr, ptr, %class.btAlignedObjectArray.12, %class.btAlignedObjectArray.14, %class.btAlignedObjectArray.12, %class.btAlignedObjectArray.14, %class.btAlignedObjectArray.16, %class.btAlignedObjectArray.14, %class.btAlignedObjectArray.18 }
%class.btDiscreteDynamicsWorld.base = type <{ %class.btDynamicsWorld, %class.btAlignedObjectArray.0, ptr, ptr, ptr, %class.btAlignedObjectArray.0, %class.btAlignedObjectArray.2, %class.btVector3, float, float, i8, i8, i8, i8, [4 x i8], %class.btAlignedObjectArray.4, i32, i8, [3 x i8], %class.btAlignedObjectArray.6, %class.btSpinMutex }>
%class.btDynamicsWorld = type { %class.btCollisionWorld.base, ptr, ptr, ptr, %struct.btContactSolverInfo }
%class.btCollisionWorld.base = type <{ ptr, %class.btAlignedObjectArray, ptr, %struct.btDispatcherInfo, ptr, ptr, i8 }>
%class.btAlignedObjectArray = type <{ [4 x i8], i32, i32, [4 x i8], ptr, i8, [7 x i8] }>
%struct.btDispatcherInfo = type <{ float, i32, i32, float, i8, [7 x i8], ptr, i8, i8, i8, i8, float, i8, [3 x i8], float, i8, [7 x i8] }>
%struct.btContactSolverInfo = type { %struct.btContactSolverInfoData }
%struct.btContactSolverInfoData = type { float, float, float, float, float, i32, float, float, float, float, float, float, float, float, float, float, i32, float, float, float, float, float, i32, i32, i32, float, float, float, float, i8, i8, i32, i32 }
%class.btAlignedObjectArray.0 = type <{ [4 x i8], i32, i32, [4 x i8], ptr, i8, [7 x i8] }>
%class.btAlignedObjectArray.2 = type <{ [4 x i8], i32, i32, [4 x i8], ptr, i8, [7 x i8] }>
%class.btVector3 = type { [4 x float] }
%class.btAlignedObjectArray.4 = type <{ [4 x i8], i32, i32, [4 x i8], ptr, i8, [7 x i8] }>
%class.btAlignedObjectArray.6 = type <{ [4 x i8], i32, i32, [4 x i8], ptr, i8, [7 x i8] }>
%class.btSpinMutex = type { i32 }
%class.btAlignedObjectArray.8 = type <{ [4 x i8], i32, i32, [4 x i8], ptr, i8, [7 x i8] }>
%class.btAlignedObjectArray.10 = type <{ [4 x i8], i32, i32, [4 x i8], ptr, i8, [7 x i8] }>
%class.btAlignedObjectArray.12 = type <{ [4 x i8], i32, i32, [4 x i8], ptr, i8, [7 x i8] }>
%class.btAlignedObjectArray.16 = type <{ [4 x i8], i32, i32, [4 x i8], ptr, i8, [7 x i8] }>
%class.btAlignedObjectArray.14 = type <{ [4 x i8], i32, i32, [4 x i8], ptr, i8, [7 x i8] }>
%class.btAlignedObjectArray.18 = type <{ [4 x i8], i32, i32, [4 x i8], ptr, i8, [7 x i8] }>

; Function Attrs: inlinehint mustprogress nounwind uwtable
define linkonce_odr dso_local noundef nonnull align 8 dereferenceable(8) ptr @_ZN20btAlignedObjectArrayIP11btMultiBodyEixEi(ptr noundef nonnull align 8 dereferenceable(25) %0, i32 noundef %1) #6 comdat align 2 {
  %3 = alloca ptr, align 8
  %4 = alloca i32, align 4
  store ptr %0, ptr %3, align 8, !tbaa !16
  store i32 %1, ptr %4, align 4, !tbaa !9
  %5 = load ptr, ptr %3, align 8
  %6 = getelementptr inbounds nuw %class.btAlignedObjectArray.8, ptr %5, i32 0, i32 4
  %7 = load ptr, ptr %6, align 8, !tbaa !20
  %8 = load i32, ptr %4, align 4, !tbaa !9
  %9 = sext i32 %8 to i64
  %10 = getelementptr inbounds ptr, ptr %7, i64 %9
  ret ptr %10
}

; Function Attrs: inlinehint mustprogress nounwind uwtable
define linkonce_odr dso_local noundef i32 @_ZNK20btAlignedObjectArrayIP11btMultiBodyE4sizeEv(ptr noundef nonnull align 8 dereferenceable(25) %0) #6 comdat align 2 {
  %2 = alloca ptr, align 8
  store ptr %0, ptr %2, align 8, !tbaa !16
  %3 = load ptr, ptr %2, align 8
  %4 = getelementptr inbounds nuw %class.btAlignedObjectArray.8, ptr %3, i32 0, i32 1
  %5 = load i32, ptr %4, align 4, !tbaa !24
  ret i32 %5
}

; Function Attrs: mustprogress uwtable
define dso_local void @_ZN24btMultiBodyDynamicsWorld30clearMultiBodyConstraintForcesEv(ptr noundef nonnull align 8 dereferenceable(848) %0) unnamed_addr #2 align 2 {
  %2 = alloca ptr, align 8
  %3 = alloca i32, align 4
  %4 = alloca ptr, align 8
  store ptr %0, ptr %2, align 8, !tbaa !12
  %5 = load ptr, ptr %2, align 8
  call void @llvm.lifetime.start.p0(i64 4, ptr %3) #16
  store i32 0, ptr %3, align 4, !tbaa !9
  br label %6

6:                                                ; preds = %18, %1
  %7 = load i32, ptr %3, align 4, !tbaa !9
  %8 = getelementptr inbounds nuw %class.btMultiBodyDynamicsWorld, ptr %5, i32 0, i32 2
  %9 = call noundef i32 @_ZNK20btAlignedObjectArrayIP11btMultiBodyE4sizeEv(ptr noundef nonnull align 8 dereferenceable(25) %8)
  %10 = icmp slt i32 %7, %9
  br i1 %10, label %12, label %11

11:                                               ; preds = %6
  call void @llvm.lifetime.end.p0(i64 4, ptr %3) #16
  br label %21

12:                                               ; preds = %6
  call void @llvm.lifetime.start.p0(i64 8, ptr %4) #16
  %13 = getelementptr inbounds nuw %class.btMultiBodyDynamicsWorld, ptr %5, i32 0, i32 2
  %14 = load i32, ptr %3, align 4, !tbaa !9
  %15 = call noundef nonnull align 8 dereferenceable(8) ptr @_ZN20btAlignedObjectArrayIP11btMultiBodyEixEi(ptr noundef nonnull align 8 dereferenceable(25) %13, i32 noundef %14)
  %16 = load ptr, ptr %15, align 8, !tbaa !14
  store ptr %16, ptr %4, align 8, !tbaa !14
  %17 = load ptr, ptr %4, align 8, !tbaa !14
  call void @_ZN11btMultiBody21clearConstraintForcesEv(ptr noundef nonnull align 8 dereferenceable(640) %17)
  call void @llvm.lifetime.end.p0(i64 8, ptr %4) #16
  br label %18

18:                                               ; preds = %12
  %19 = load i32, ptr %3, align 4, !tbaa !9
  %20 = add nsw i32 %19, 1
  store i32 %20, ptr %3, align 4, !tbaa !9
  br label %6, !llvm.loop !282

21:                                               ; preds = %11
  ret void
}